 listerner

 Timestamp is 57fb0426 (Mon Oct 10 10:59:50 2016)

 Preferred load address is 0000000140000000

 Start         Length     Name                   Class
 0001:00000000 000045a4H .text                   CODE
 0001:000045b0 0000125bH .text$x                 CODE
 0001:00005810 0000112dH .text$yc                CODE
 0001:00006940 0000105dH .text$yd                CODE
 0002:00000000 00000109H .CRT$XCA                DATA
 0002:00000110 00000109H .CRT$XCAA               DATA
 0002:00000220 0000016aH .CRT$XCU                DATA
 0002:00000390 00000109H .CRT$XCZ                DATA
 0002:000004a0 00000109H .CRT$XIA                DATA
 0002:000005b0 00000109H .CRT$XIAA               DATA
 0002:000006c0 00000109H .CRT$XIC                DATA
 0002:000007d0 00000109H .CRT$XIY                DATA
 0002:000008e0 00000109H .CRT$XIZ                DATA
 0002:000009f0 0000081eH .rdata                  DATA
 0002:00001210 00000169H .rdata$debug            DATA
 0002:00001380 000003f1H .rdata$r                DATA
 0002:00001778 00000109H .rtc$IAA                DATA
 0002:00001888 00000109H .rtc$IZZ                DATA
 0002:00001998 00000109H .rtc$TAA                DATA
 0002:00001aa8 00000109H .rtc$TZZ                DATA
 0002:00001bb8 0000085cH .xdata                  DATA
 0002:00002414 00000000H .edata                  DATA
 0003:00000000 0000024eH .data                   DATA
 0003:00000250 000006f8H .bss                    DATA
 0004:00000000 00000534H .pdata                  DATA
 0005:00000000 00000064H .idata$2                DATA
 0005:00000064 00000014H .idata$3                DATA
 0005:00000078 000003d0H .idata$4                DATA
 0005:00000448 000003d0H .idata$5                DATA
 0005:00000818 000006b4H .idata$6                DATA
 0005:00000ecc 0000001cH .idata$7                DATA
 0006:00000000 00000169H .rsrc$01                DATA
 0006:00000170 000002ccH .rsrc$02                DATA

  Address         Publics by Value              Rva+Base               Lib:Object

 0000:00000000       ___safe_se_handler_table   0000000000000000     <absolute>
 0000:00000000       ___safe_se_handler_count   0000000000000000     <absolute>
 0000:00000000       __ImageBase                0000000140000000     <linker-defined>
 0001:000007f0       main                       00000001400017f0 f   main.obj
 0001:000008bc       atoi                       00000001400018bc f   MSVCRT:MSVCR110.dll
 0001:000008d0       ?max_size@?$_Wrap_alloc@V?$allocator@D@std@@@std@@QEBA_KXZ 00000001400018d0 f i Listner.obj
 0001:000008f0       ?value@error_condition@std@@QEBAHXZ 00000001400018f0 f i Listner.obj
 0001:00000900       ??$_Allocate@D@std@@YAPEAD_KPEAD@Z 0000000140001900 f i Listner.obj
 0001:00000970       ??$addressof@D@std@@YAPEADAEAD@Z 0000000140001970 f i Listner.obj
 0001:00000980       ??$construct@PEADAEAPEAD@?$_Wrap_alloc@V?$allocator@D@std@@@std@@QEAAXPEAPEADAEAPEAD@Z 0000000140001980 f i Listner.obj
 0001:000009d0       ??$construct@PEADAEAPEAD@?$allocator@D@std@@QEAAXPEAPEADAEAPEAD@Z 00000001400019d0 f i Listner.obj
 0001:00000a60       ??$construct@PEADAEAPEAD@?$allocator_traits@V?$allocator@D@std@@@std@@SAXAEAV?$allocator@D@1@PEAPEADAEAPEAD@Z 0000000140001a60 f i Listner.obj
 0001:00000ab0       ??$destroy@PEAD@?$_Wrap_alloc@V?$allocator@D@std@@@std@@QEAAXPEAPEAD@Z 0000000140001ab0 f i Listner.obj
 0001:00000ae0       ??$destroy@PEAD@?$allocator@D@std@@QEAAXPEAPEAD@Z 0000000140001ae0 f i Listner.obj
 0001:00000af0       ??$destroy@PEAD@?$allocator_traits@V?$allocator@D@std@@@std@@SAXAEAV?$allocator@D@1@PEAPEAD@Z 0000000140001af0 f i Listner.obj
 0001:00000b20       ??$forward@AEAPEAD@std@@YAAEAPEADAEAPEAD@Z 0000000140001b20 f i Listner.obj
 0001:00000b30       ??0?$_String_alloc@$0A@U?$_String_base_types@DV?$allocator@D@std@@@std@@@std@@QEAA@AEBV?$allocator@D@1@@Z 0000000140001b30 f i Listner.obj
 0001:00000b60       ??0?$_String_val@U?$_Simple_types@D@std@@@std@@QEAA@XZ 0000000140001b60 f i Listner.obj
 0001:00000b90       ??0?$_Wrap_alloc@V?$allocator@D@std@@@std@@QEAA@XZ 0000000140001b90 f i Listner.obj
 0001:00000bc0       ??0?$allocator@D@std@@QEAA@XZ 0000000140001bc0 f i Listner.obj
 0001:00000bd0       ??0?$basic_string@DU?$char_traits@D@std@@V?$allocator@D@2@@std@@QEAA@PEBD@Z 0000000140001bd0 f i Listner.obj
 0001:00000c30       ??0?$basic_string@DU?$char_traits@D@std@@V?$allocator@D@2@@std@@QEAA@XZ 0000000140001c30 f i Listner.obj
 0001:00000c80       ??0_Generic_error_category@std@@QEAA@XZ 0000000140001c80 f i Listner.obj
 0001:00000cc0       ??0_Iostream_error_category@std@@QEAA@XZ 0000000140001cc0 f i Listner.obj
 0001:00000d00       ??0_System_error_category@std@@QEAA@XZ 0000000140001d00 f i Listner.obj
 0001:00000d40       ??0error_category@std@@QEAA@XZ 0000000140001d40 f i Listner.obj
 0001:00000d60       ??0error_condition@std@@QEAA@HAEBVerror_category@1@@Z 0000000140001d60 f i Listner.obj
 0001:00000da0       ??1?$basic_string@DU?$char_traits@D@std@@V?$allocator@D@2@@std@@QEAA@XZ 0000000140001da0 f i Listner.obj
 0001:00000dd0       ??1_Generic_error_category@std@@UEAA@XZ 0000000140001dd0 f i Listner.obj
 0001:00000df0       ??1_Iostream_error_category@std@@UEAA@XZ 0000000140001df0 f i Listner.obj
 0001:00000e10       ??1_System_error_category@std@@UEAA@XZ 0000000140001e10 f i Listner.obj
 0001:00000e30       ??1error_category@std@@UEAA@XZ 0000000140001e30 f i Listner.obj
 0001:00000e50       ??2@YAPEAX_KPEAX@Z         0000000140001e50 f i Listner.obj
 0001:00000e70       ??3@YAXPEAX0@Z             0000000140001e70 f i Listner.obj
 0001:00000e80       ??8error_category@std@@QEBA_NAEBV01@@Z 0000000140001e80 f i Listner.obj
 0001:00000ec0       ??8error_condition@std@@QEBA_NAEBV01@@Z 0000000140001ec0 f i Listner.obj
 0001:00000f60       ??Y?$basic_string@DU?$char_traits@D@std@@V?$allocator@D@2@@std@@QEAAAEAV01@PEBD@Z 0000000140001f60 f i Listner.obj
 0001:00000f90       ??_E_Generic_error_category@std@@UEAAPEAXI@Z 0000000140001f90 f i Listner.obj
 0001:00000f90       ??_G_Generic_error_category@std@@UEAAPEAXI@Z 0000000140001f90 f i Listner.obj
 0001:00000fe0       ??_G_Iostream_error_category@std@@UEAAPEAXI@Z 0000000140001fe0 f i Listner.obj
 0001:00000fe0       ??_E_Iostream_error_category@std@@UEAAPEAXI@Z 0000000140001fe0 f i Listner.obj
 0001:00001030       ??_E_System_error_category@std@@UEAAPEAXI@Z 0000000140002030 f i Listner.obj
 0001:00001030       ??_G_System_error_category@std@@UEAAPEAXI@Z 0000000140002030 f i Listner.obj
 0001:00001080       ??_Eerror_category@std@@UEAAPEAXI@Z 0000000140002080 f i Listner.obj
 0001:00001080       ??_Gerror_category@std@@UEAAPEAXI@Z 0000000140002080 f i Listner.obj
 0001:000010d0       ?_Copy@?$basic_string@DU?$char_traits@D@std@@V?$allocator@D@2@@std@@QEAAX_K0@Z 00000001400020d0 f i Listner.obj
 0001:000012c0       ?copy@?$char_traits@D@std@@SAPEADPEADPEBD_K@Z 00000001400022c0 f i Listner.obj
 0001:00001330       ?_Eos@?$basic_string@DU?$char_traits@D@std@@V?$allocator@D@2@@std@@QEAAX_K@Z 0000000140002330 f i Listner.obj
 0001:00001390       ?_Getal@?$_String_alloc@$0A@U?$_String_base_types@DV?$allocator@D@std@@@std@@@std@@QEBA?AU?$_Wrap_alloc@V?$allocator@D@std@@@2@XZ 0000000140002390 f i Listner.obj
 0001:000013c0       ?_Grow@?$basic_string@DU?$char_traits@D@std@@V?$allocator@D@2@@std@@QEAA_N_K_N@Z 00000001400023c0 f i Listner.obj
 0001:000014a0       ?length@?$char_traits@D@std@@SA_KPEBD@Z 00000001400024a0 f i Listner.obj
 0001:000014e0       ?_Inside@?$basic_string@DU?$char_traits@D@std@@V?$allocator@D@2@@std@@QEAA_NPEBD@Z 00000001400024e0 f i Listner.obj
 0001:00001550       ?_Myptr@?$_String_val@U?$_Simple_types@D@std@@@std@@QEAAPEADXZ 0000000140002550 f i Listner.obj
 0001:000015a0       ?_Myptr@?$_String_val@U?$_Simple_types@D@std@@@std@@QEBAPEBDXZ 00000001400025a0 f i Listner.obj
 0001:000015f0       ?_Tidy@?$basic_string@DU?$char_traits@D@std@@V?$allocator@D@2@@std@@QEAAX_N_K@Z 00000001400025f0 f i Listner.obj
 0001:00001710       ?_Xlen@?$basic_string@DU?$char_traits@D@std@@V?$allocator@D@2@@std@@QEBAXXZ 0000000140002710 f i Listner.obj
 0001:00001740       ?_Xran@?$basic_string@DU?$char_traits@D@std@@V?$allocator@D@2@@std@@QEBAXXZ 0000000140002740 f i Listner.obj
 0001:00001770       ?allocate@?$_Wrap_alloc@V?$allocator@D@std@@@std@@QEAAPEAD_K@Z 0000000140002770 f i Listner.obj
 0001:000017a0       ?allocate@?$allocator@D@std@@QEAAPEAD_K@Z 00000001400027a0 f i Listner.obj
 0001:000017d0       ?append@?$basic_string@DU?$char_traits@D@std@@V?$allocator@D@2@@std@@QEAAAEAV12@AEBV12@_K1@Z 00000001400027d0 f i Listner.obj
 0001:00001920       ?append@?$basic_string@DU?$char_traits@D@std@@V?$allocator@D@2@@std@@QEAAAEAV12@PEBD@Z 0000000140002920 f i Listner.obj
 0001:00001960       ?append@?$basic_string@DU?$char_traits@D@std@@V?$allocator@D@2@@std@@QEAAAEAV12@PEBD_K@Z 0000000140002960 f i Listner.obj
 0001:00001a90       ?assign@?$basic_string@DU?$char_traits@D@std@@V?$allocator@D@2@@std@@QEAAAEAV12@AEBV12@_K1@Z 0000000140002a90 f i Listner.obj
 0001:00001bd0       ?assign@?$basic_string@DU?$char_traits@D@std@@V?$allocator@D@2@@std@@QEAAAEAV12@PEBD@Z 0000000140002bd0 f i Listner.obj
 0001:00001c10       ?assign@?$basic_string@DU?$char_traits@D@std@@V?$allocator@D@2@@std@@QEAAAEAV12@PEBD_K@Z 0000000140002c10 f i Listner.obj
 0001:00001ce0       ?assign@?$char_traits@D@std@@SAXAEADAEBD@Z 0000000140002ce0 f i Listner.obj
 0001:00001d00       ?c_str@?$basic_string@DU?$char_traits@D@std@@V?$allocator@D@2@@std@@QEBAPEBDXZ 0000000140002d00 f i Listner.obj
 0001:00001d20       ?category@error_code@std@@QEBAAEBVerror_category@2@XZ 0000000140002d20 f i Listner.obj
 0001:00001d40       ?category@error_condition@std@@QEBAAEBVerror_category@2@XZ 0000000140002d40 f i Listner.obj
 0001:00001d50       ?default_error_condition@_System_error_category@std@@UEBA?AVerror_condition@2@H@Z 0000000140002d50 f i Listner.obj
 0001:00001de0       ?deallocate@?$_Wrap_alloc@V?$allocator@D@std@@@std@@QEAAXPEAD_K@Z 0000000140002de0 f i Listner.obj
 0001:00001e10       ?deallocate@?$allocator@D@std@@QEAAXPEAD_K@Z 0000000140002e10 f i Listner.obj
 0001:00001e40       ?equivalent@error_category@std@@UEBA_NAEBVerror_code@2@H@Z 0000000140002e40 f i Listner.obj
 0001:00001ed0       ?default_error_condition@error_category@std@@UEBA?AVerror_condition@2@H@Z 0000000140002ed0 f i Listner.obj
 0001:00001f00       ?erase@?$basic_string@DU?$char_traits@D@std@@V?$allocator@D@2@@std@@QEAAAEAV12@_K@Z 0000000140002f00 f i Listner.obj
 0001:00001f50       ?move@?$char_traits@D@std@@SAPEADPEADPEBD_K@Z 0000000140002f50 f i Listner.obj
 0001:00001fa0       ?equivalent@error_category@std@@UEBA_NHAEBVerror_condition@2@@Z 0000000140002fa0 f i Listner.obj
 0001:00001fe0       ?erase@?$basic_string@DU?$char_traits@D@std@@V?$allocator@D@2@@std@@QEAAAEAV12@_K0@Z 0000000140002fe0 f i Listner.obj
 0001:00002120       ?generic_category@std@@YAAEBVerror_category@1@XZ 0000000140003120 f i Listner.obj
 0001:00002130       ?message@_System_error_category@std@@UEBA?AV?$basic_string@DU?$char_traits@D@std@@V?$allocator@D@2@@2@H@Z 0000000140003130 f i Listner.obj
 0001:000021a0       ?max_size@?$allocator@D@std@@QEBA_KXZ 00000001400031a0 f i Listner.obj
 0001:000021c0       ?max_size@?$allocator_traits@V?$allocator@D@std@@@std@@SA_KAEBV?$allocator@D@2@@Z 00000001400031c0 f i Listner.obj
 0001:00002230       ?max_size@?$basic_string@DU?$char_traits@D@std@@V?$allocator@D@2@@std@@QEBA_KXZ 0000000140003230 f i Listner.obj
 0001:000022c0       ?message@_Generic_error_category@std@@UEBA?AV?$basic_string@DU?$char_traits@D@std@@V?$allocator@D@2@@2@H@Z 00000001400032c0 f i Listner.obj
 0001:00002350       ?message@_Iostream_error_category@std@@UEBA?AV?$basic_string@DU?$char_traits@D@std@@V?$allocator@D@2@@2@H@Z 0000000140003350 f i Listner.obj
 0001:00002450       ?name@_Generic_error_category@std@@UEBAPEBDXZ 0000000140003450 f i Listner.obj
 0001:00002460       ?name@_Iostream_error_category@std@@UEBAPEBDXZ 0000000140003460 f i Listner.obj
 0001:00002470       ?name@_System_error_category@std@@UEBAPEBDXZ 0000000140003470 f i Listner.obj
 0001:00002490       ?size@?$basic_string@DU?$char_traits@D@std@@V?$allocator@D@2@@std@@QEBA_KXZ 0000000140003490 f i Listner.obj
 0001:000024a0       ?system_category@std@@YAAEBVerror_category@1@XZ 00000001400034a0 f i Listner.obj
 0001:000024b0       ?value@error_code@std@@QEBAHXZ 00000001400034b0 f i Listner.obj
 0001:00002586       NET_DVR_Init               0000000140003586 f   HCNetSDK:HCNetSDK.dll
 0001:0000258c       NET_DVR_Cleanup            000000014000358c f   HCNetSDK:HCNetSDK.dll
 0001:00002592       NET_DVR_StartListen_V30    0000000140003592 f   HCNetSDK:HCNetSDK.dll
 0001:00002598       NET_DVR_StopListen_V30     0000000140003598 f   HCNetSDK:HCNetSDK.dll
 0001:0000259e       NET_DVR_Login_V30          000000014000359e f   HCNetSDK:HCNetSDK.dll
 0001:000025a4       NET_DVR_Logout             00000001400035a4 f   HCNetSDK:HCNetSDK.dll
 0001:000025aa       NET_DVR_GetLastError       00000001400035aa f   HCNetSDK:HCNetSDK.dll
 0001:000025b0       curl_easy_init             00000001400035b0     libcurldll:d000005.o
 0001:000025b8       curl_easy_setopt           00000001400035b8     libcurldll:d000011.o
 0001:000025c0       curl_easy_perform          00000001400035c0     libcurldll:d000007.o
 0001:000025c8       curl_easy_cleanup          00000001400035c8     libcurldll:d000001.o
 0001:000025d0       GetTickCount64             00000001400035d0 f   kernel32:KERNEL32.dll
 0001:000025d6       ?_Xbad_alloc@std@@YAXXZ    00000001400035d6 f   msvcprt:MSVCP110.dll
 0001:000025dc       ?_Xlength_error@std@@YAXPEBD@Z 00000001400035dc f   msvcprt:MSVCP110.dll
 0001:000025e2       ?_Xout_of_range@std@@YAXPEBD@Z 00000001400035e2 f   msvcprt:MSVCP110.dll
 0001:000025e8       ??0id@locale@std@@QEAA@_K@Z 00000001400035e8 f   msvcprt:MSVCP110.dll
 0001:000025ee       ?_Syserror_map@std@@YAPEBDH@Z 00000001400035ee f   msvcprt:MSVCP110.dll
 0001:000025f4       ?_Winerror_map@std@@YAPEBDH@Z 00000001400035f4 f   msvcprt:MSVCP110.dll
 0001:000025fa       _purecall                  00000001400035fa f   MSVCRT:MSVCR110.dll
 0001:00002600       ??2@YAPEAX_K@Z             0000000140003600 f   MSVCRT:MSVCR110.dll
 0001:00002606       ??3@YAXPEAX@Z              0000000140003606 f   MSVCRT:MSVCR110.dll
 0001:0000260c       __atonexitinit             000000014000360c f   MSVCRT:atonexit.obj
 0001:0000265c       _onexit                    000000014000365c f   MSVCRT:atonexit.obj
 0001:0000270c       atexit                     000000014000370c f   MSVCRT:atonexit.obj
 0001:00002724       memcpy                     0000000140003724 f   MSVCRT:MSVCR110.dll
 0001:0000272a       memset                     000000014000372a f   MSVCRT:MSVCR110.dll
 0001:00002730       strcpy                     0000000140003730 f   MSVCRT:MSVCR110.dll
 0001:00002736       strlen                     0000000140003736 f   MSVCRT:MSVCR110.dll
 0001:0000273c       memmove                    000000014000373c f   MSVCRT:MSVCR110.dll
 0001:00002742       printf                     0000000140003742 f   MSVCRT:MSVCR110.dll
 0001:00002748       sprintf                    0000000140003748 f   MSVCRT:MSVCR110.dll
 0001:0000274e       _CxxThrowException         000000014000374e f   MSVCRT:MSVCR110.dll
 0001:00002754       __CxxFrameHandler3         0000000140003754 f   MSVCRT:MSVCR110.dll
 0001:0000275c       __GSHandlerCheck           000000014000375c f   MSVCRT:gshandler.obj
 0001:0000277c       __GSHandlerCheckCommon     000000014000377c f   MSVCRT:gshandler.obj
 0001:000027e0       __GSHandlerCheck_EH        00000001400037e0 f   MSVCRT:gshandlereh.obj
 0001:00002880       __security_check_cookie    0000000140003880 f   MSVCRT:amdsecgs.obj
 0001:000028a0       ??0type_info@@AEAA@AEBV0@@Z 00000001400038a0 f   MSVCRT:ti_inst.obj
 0001:000028b0       ??4type_info@@AEAAAEAV0@AEBV0@@Z 00000001400038b0 f   MSVCRT:ti_inst.obj
 0001:000028b4       ??_Etype_info@@UEAAPEAXI@Z 00000001400038b4 f i MSVCRT:ti_inst.obj
 0001:0000291e       getchar                    000000014000391e f   MSVCRT:MSVCR110.dll
 0001:00002a58       NtCurrentTeb               0000000140003a58 f i MSVCRT:crtexe.obj
 0001:00002c20       mainCRTStartup             0000000140003c20 f   MSVCRT:crtexe.obj
 0001:00002c32       _lock                      0000000140003c32 f   MSVCRT:MSVCR110.dll
 0001:00002c38       _unlock                    0000000140003c38 f   MSVCRT:MSVCR110.dll
 0001:00002c3e       _calloc_crt                0000000140003c3e f   MSVCRT:MSVCR110.dll
 0001:00002c44       __dllonexit                0000000140003c44 f   MSVCRT:MSVCR110.dll
 0001:00002c4a       __C_specific_handler       0000000140003c4a f   MSVCRT:MSVCR110.dll
 0001:00002c50       __raise_securityfailure    0000000140003c50 f   MSVCRT:gs_report.obj
 0001:00002c9c       __report_gsfailure         0000000140003c9c f   MSVCRT:gs_report.obj
 0001:00002d70       __report_rangecheckfailure 0000000140003d70 f   MSVCRT:gs_report.obj
 0001:00002d84       __report_securityfailure   0000000140003d84 f   MSVCRT:gs_report.obj
 0001:00002e20       __report_securityfailureEx 0000000140003e20 f   MSVCRT:gs_report.obj
 0001:00002f30       ??_M@YAXPEAX_KHP6AX0@Z@Z   0000000140003f30 f   MSVCRT:ehvecdtr.obj
 0001:00002fac       ?__ArrayUnwind@@YAXPEAX_KHP6AX0@Z@Z 0000000140003fac f   MSVCRT:ehvecdtr.obj
 0001:00002ff8       ?__CxxUnhandledExceptionFilter@@YAJPEAU_EXCEPTION_POINTERS@@@Z 0000000140003ff8 f   MSVCRT:unhandld.obj
 0001:00003030       __CxxSetUnhandledExceptionFilter 0000000140004030 f   MSVCRT:unhandld.obj
 0001:00003048       _XcptFilter                0000000140004048 f   MSVCRT:MSVCR110.dll
 0001:0000304e       _amsg_exit                 000000014000404e f   MSVCRT:MSVCR110.dll
 0001:00003054       _setargv                   0000000140004054 f   MSVCRT:dllargv.obj
 0001:00003058       __getmainargs              0000000140004058 f   MSVCRT:MSVCR110.dll
 0001:0000305e       __set_app_type             000000014000405e f   MSVCRT:MSVCR110.dll
 0001:00003070       _FindPESection             0000000140004070 f   MSVCRT:pesect.obj
 0001:000030c0       _IsNonwritableInCurrentImage 00000001400040c0 f   MSVCRT:pesect.obj
 0001:00003110       _ValidateImageBase         0000000140004110 f   MSVCRT:pesect.obj
 0001:00003140       exit                       0000000140004140 f   MSVCRT:MSVCR110.dll
 0001:00003146       _exit                      0000000140004146 f   MSVCRT:MSVCR110.dll
 0001:0000314c       _cexit                     000000014000414c f   MSVCRT:MSVCR110.dll
 0001:00003154       __security_init_cookie     0000000140004154 f   MSVCRT:gs_support.obj
 0001:0000320c       _matherr                   000000014000420c f   MSVCRT:merr.obj
 0001:00003210       _RTC_Initialize            0000000140004210 f   MSVCRT:initsect.obj
 0001:00003248       _RTC_Terminate             0000000140004248 f   MSVCRT:initsect.obj
 0001:00003280       _configthreadlocale        0000000140004280 f   MSVCRT:MSVCR110.dll
 0001:00003286       __setusermatherr           0000000140004286 f   MSVCRT:MSVCR110.dll
 0001:0000328c       _initterm_e                000000014000428c f   MSVCRT:MSVCR110.dll
 0001:00003292       _initterm                  0000000140004292 f   MSVCRT:MSVCR110.dll
 0001:00003298       __crt_debugger_hook        0000000140004298 f   MSVCRT:MSVCR110.dll
 0001:0000329e       __crtUnhandledException    000000014000429e f   MSVCRT:MSVCR110.dll
 0001:000032a4       __crtTerminateProcess      00000001400042a4 f   MSVCRT:MSVCR110.dll
 0001:000032aa       __crtCaptureCurrentContext 00000001400042aa f   MSVCRT:MSVCR110.dll
 0001:000032b0       __crtCapturePreviousContext 00000001400042b0 f   MSVCRT:MSVCR110.dll
 0001:000032b6       ?terminate@@YAXXZ          00000001400042b6 f   MSVCRT:MSVCR110.dll
 0001:000032bc       ?_type_info_dtor_internal_method@type_info@@QEAAXXZ 00000001400042bc f   MSVCRT:MSVCR110.dll
 0001:000032bc       ??1type_info@@UEAA@XZ      00000001400042bc f   MSVCRT:MSVCR110.dll
 0001:000032c2       __crtSetUnhandledExceptionFilter 00000001400042c2 f   MSVCRT:MSVCR110.dll
 0001:000032c8       EncodePointer              00000001400042c8 f   kernel32:KERNEL32.dll
 0001:000032ce       DecodePointer              00000001400042ce f   kernel32:KERNEL32.dll
 0001:000032d4       IsDebuggerPresent          00000001400042d4 f   kernel32:KERNEL32.dll
 0001:000032da       IsProcessorFeaturePresent  00000001400042da f   kernel32:KERNEL32.dll
 0001:000032e0       QueryPerformanceCounter    00000001400042e0 f   kernel32:KERNEL32.dll
 0001:000032e6       GetCurrentThreadId         00000001400042e6 f   kernel32:KERNEL32.dll
 0001:000032ec       GetSystemTimeAsFileTime    00000001400042ec f   kernel32:KERNEL32.dll
 0001:00003300       ??0CListner@@QEAA@XZ       0000000140004300 f   Listner.obj
 0001:00003320       ??1CListner@@QEAA@XZ       0000000140004320 f   Listner.obj
 0001:00003330       ?start@CListner@@QEAAXPEAD0H0@Z 0000000140004330 f   Listner.obj
 0001:00003430       ?stop@CListner@@QEAAXXZ    0000000140004430 f   Listner.obj
 0001:00003590       ?callBack@@YAXJPEAUNET_DVR_ALARMER@@PEADKPEAX@Z 0000000140004590 f   Listner.obj
 0002:00000000       __xc_a                     0000000140009000     MSVCRT:cinitexe.obj
 0002:00000390       __xc_z                     0000000140009390     MSVCRT:cinitexe.obj
 0002:000004a0       __xi_a                     00000001400094a0     MSVCRT:cinitexe.obj
 0002:000008e0       __xi_z                     00000001400098e0     MSVCRT:cinitexe.obj
 0002:00000a28       ?max_exponent10@?$numeric_limits@N@std@@2HB 0000000140009a28     Listner.obj
 0002:00000a2c       ?min_exponent@?$numeric_limits@N@std@@2HB 0000000140009a2c     Listner.obj
 0002:00000a30       ?min_exponent10@?$numeric_limits@N@std@@2HB 0000000140009a30     Listner.obj
 0002:00000a34       ?digits@?$numeric_limits@O@std@@2HB 0000000140009a34     Listner.obj
 0002:00000a38       ?digits10@?$numeric_limits@O@std@@2HB 0000000140009a38     Listner.obj
 0002:00000a3c       ?max_digits10@?$numeric_limits@O@std@@2HB 0000000140009a3c     Listner.obj
 0002:00000a40       ?max_exponent@?$numeric_limits@O@std@@2HB 0000000140009a40     Listner.obj
 0002:00000a44       ?max_exponent10@?$numeric_limits@O@std@@2HB 0000000140009a44     Listner.obj
 0002:00000a48       ?min_exponent@?$numeric_limits@O@std@@2HB 0000000140009a48     Listner.obj
 0002:00000a4c       ?min_exponent10@?$numeric_limits@O@std@@2HB 0000000140009a4c     Listner.obj
 0002:00000a50       ?value@?$integral_constant@_N$0A@@std@@2_NB 0000000140009a50     Listner.obj
 0002:00000a51       ?value@?$integral_constant@_N$00@std@@2_NB 0000000140009a51     Listner.obj
 0002:00000a58       ?value@?$_Sizeof@U_Nil@std@@U12@U12@U12@U12@U12@U12@U12@@std@@2_KB 0000000140009a58     Listner.obj
 0002:00000a64       ?has_denorm@_Num_base@std@@2W4float_denorm_style@2@B 0000000140009a64     Listner.obj
 0002:00000a68       ?has_denorm_loss@_Num_base@std@@2_NB 0000000140009a68     Listner.obj
 0002:00000a69       ?has_infinity@_Num_base@std@@2_NB 0000000140009a69     Listner.obj
 0002:00000a6a       ?has_quiet_NaN@_Num_base@std@@2_NB 0000000140009a6a     Listner.obj
 0002:00000a6b       ?has_signaling_NaN@_Num_base@std@@2_NB 0000000140009a6b     Listner.obj
 0002:00000a6c       ?is_bounded@_Num_base@std@@2_NB 0000000140009a6c     Listner.obj
 0002:00000a6d       ?is_exact@_Num_base@std@@2_NB 0000000140009a6d     Listner.obj
 0002:00000a6e       ?is_iec559@_Num_base@std@@2_NB 0000000140009a6e     Listner.obj
 0002:00000a6f       ?is_integer@_Num_base@std@@2_NB 0000000140009a6f     Listner.obj
 0002:00000a70       ?is_modulo@_Num_base@std@@2_NB 0000000140009a70     Listner.obj
 0002:00000a71       ?is_signed@_Num_base@std@@2_NB 0000000140009a71     Listner.obj
 0002:00000a72       ?is_specialized@_Num_base@std@@2_NB 0000000140009a72     Listner.obj
 0002:00000a73       ?tinyness_before@_Num_base@std@@2_NB 0000000140009a73     Listner.obj
 0002:00000a74       ?traps@_Num_base@std@@2_NB 0000000140009a74     Listner.obj
 0002:00000a78       ?round_style@_Num_base@std@@2W4float_round_style@2@B 0000000140009a78     Listner.obj
 0002:00000b54       ?digits@_Num_base@std@@2HB 0000000140009b54     Listner.obj
 0002:00000b58       ?digits10@_Num_base@std@@2HB 0000000140009b58     Listner.obj
 0002:00000b5c       ?max_digits10@_Num_base@std@@2HB 0000000140009b5c     Listner.obj
 0002:00000b60       ?max_exponent@_Num_base@std@@2HB 0000000140009b60     Listner.obj
 0002:00000b64       ?max_exponent10@_Num_base@std@@2HB 0000000140009b64     Listner.obj
 0002:00000b68       ?min_exponent@_Num_base@std@@2HB 0000000140009b68     Listner.obj
 0002:00000b6c       ?min_exponent10@_Num_base@std@@2HB 0000000140009b6c     Listner.obj
 0002:00000b70       ?radix@_Num_base@std@@2HB  0000000140009b70     Listner.obj
 0002:00000b74       ?is_bounded@_Num_int_base@std@@2_NB 0000000140009b74     Listner.obj
 0002:00000b75       ?is_exact@_Num_int_base@std@@2_NB 0000000140009b75     Listner.obj
 0002:00000b76       ?is_integer@_Num_int_base@std@@2_NB 0000000140009b76     Listner.obj
 0002:00000b77       ?is_modulo@_Num_int_base@std@@2_NB 0000000140009b77     Listner.obj
 0002:00000b78       ?is_specialized@_Num_int_base@std@@2_NB 0000000140009b78     Listner.obj
 0002:00000b7c       ?radix@_Num_int_base@std@@2HB 0000000140009b7c     Listner.obj
 0002:00000b80       ?has_denorm@_Num_float_base@std@@2W4float_denorm_style@2@B 0000000140009b80     Listner.obj
 0002:00000b84       ?has_denorm_loss@_Num_float_base@std@@2_NB 0000000140009b84     Listner.obj
 0002:00000b85       ?has_infinity@_Num_float_base@std@@2_NB 0000000140009b85     Listner.obj
 0002:00000b86       ?has_quiet_NaN@_Num_float_base@std@@2_NB 0000000140009b86     Listner.obj
 0002:00000b87       ?has_signaling_NaN@_Num_float_base@std@@2_NB 0000000140009b87     Listner.obj
 0002:00000b88       ?skipws@?$_Iosb@H@std@@2W4_Fmtflags@12@B 0000000140009b88     Listner.obj
 0002:00000b8c       ?unitbuf@?$_Iosb@H@std@@2W4_Fmtflags@12@B 0000000140009b8c     Listner.obj
 0002:00000b90       ?is_bounded@_Num_float_base@std@@2_NB 0000000140009b90     Listner.obj
 0002:00000b91       ?is_exact@_Num_float_base@std@@2_NB 0000000140009b91     Listner.obj
 0002:00000b94       ?uppercase@?$_Iosb@H@std@@2W4_Fmtflags@12@B 0000000140009b94     Listner.obj
 0002:00000b98       ?is_iec559@_Num_float_base@std@@2_NB 0000000140009b98     Listner.obj
 0002:00000b9c       ?showbase@?$_Iosb@H@std@@2W4_Fmtflags@12@B 0000000140009b9c     Listner.obj
 0002:00000ba0       ?showpoint@?$_Iosb@H@std@@2W4_Fmtflags@12@B 0000000140009ba0     Listner.obj
 0002:00000ba4       ?is_integer@_Num_float_base@std@@2_NB 0000000140009ba4     Listner.obj
 0002:00000ba5       ?is_modulo@_Num_float_base@std@@2_NB 0000000140009ba5     Listner.obj
 0002:00000ba8       ?showpos@?$_Iosb@H@std@@2W4_Fmtflags@12@B 0000000140009ba8     Listner.obj
 0002:00000bac       ?is_signed@_Num_float_base@std@@2_NB 0000000140009bac     Listner.obj
 0002:00000bb0       ?left@?$_Iosb@H@std@@2W4_Fmtflags@12@B 0000000140009bb0     Listner.obj
 0002:00000bb4       ?right@?$_Iosb@H@std@@2W4_Fmtflags@12@B 0000000140009bb4     Listner.obj
 0002:00000bb8       ?is_specialized@_Num_float_base@std@@2_NB 0000000140009bb8     Listner.obj
 0002:00000bbc       ?internal@?$_Iosb@H@std@@2W4_Fmtflags@12@B 0000000140009bbc     Listner.obj
 0002:00000bc0       ?tinyness_before@_Num_float_base@std@@2_NB 0000000140009bc0     Listner.obj
 0002:00000bc4       ?dec@?$_Iosb@H@std@@2W4_Fmtflags@12@B 0000000140009bc4     Listner.obj
 0002:00000bc8       ?traps@_Num_float_base@std@@2_NB 0000000140009bc8     Listner.obj
 0002:00000bcc       ?round_style@_Num_float_base@std@@2W4float_round_style@2@B 0000000140009bcc     Listner.obj
 0002:00000bd0       ?oct@?$_Iosb@H@std@@2W4_Fmtflags@12@B 0000000140009bd0     Listner.obj
 0002:00000bd4       ?hex@?$_Iosb@H@std@@2W4_Fmtflags@12@B 0000000140009bd4     Listner.obj
 0002:00000bd8       ?radix@_Num_float_base@std@@2HB 0000000140009bd8     Listner.obj
 0002:00000bdc       ?scientific@?$_Iosb@H@std@@2W4_Fmtflags@12@B 0000000140009bdc     Listner.obj
 0002:00000be0       ?value@?$_Sizeof@HU_Nil@std@@U12@U12@U12@U12@U12@U12@@std@@2_KB 0000000140009be0     Listner.obj
 0002:00000bec       ?fixed@?$_Iosb@H@std@@2W4_Fmtflags@12@B 0000000140009bec     Listner.obj
 0002:00000bf0       ?hexfloat@?$_Iosb@H@std@@2W4_Fmtflags@12@B 0000000140009bf0     Listner.obj
 0002:00000bf4       ?boolalpha@?$_Iosb@H@std@@2W4_Fmtflags@12@B 0000000140009bf4     Listner.obj
 0002:00000bf8       ?_Stdio@?$_Iosb@H@std@@2W4_Fmtflags@12@B 0000000140009bf8     Listner.obj
 0002:00000bfc       ?adjustfield@?$_Iosb@H@std@@2W4_Fmtflags@12@B 0000000140009bfc     Listner.obj
 0002:00000c00       ?is_signed@?$numeric_limits@D@std@@2_NB 0000000140009c00     Listner.obj
 0002:00000c04       ?basefield@?$_Iosb@H@std@@2W4_Fmtflags@12@B 0000000140009c04     Listner.obj
 0002:00000c08       ?floatfield@?$_Iosb@H@std@@2W4_Fmtflags@12@B 0000000140009c08     Listner.obj
 0002:00000c0c       ?digits@?$numeric_limits@D@std@@2HB 0000000140009c0c     Listner.obj
 0002:00000c10       ?digits10@?$numeric_limits@D@std@@2HB 0000000140009c10     Listner.obj
 0002:00000c14       ?goodbit@?$_Iosb@H@std@@2W4_Iostate@12@B 0000000140009c14     Listner.obj
 0002:00000c18       ?eofbit@?$_Iosb@H@std@@2W4_Iostate@12@B 0000000140009c18     Listner.obj
 0002:00000c1c       ?failbit@?$_Iosb@H@std@@2W4_Iostate@12@B 0000000140009c1c     Listner.obj
 0002:00000c20       ?badbit@?$_Iosb@H@std@@2W4_Iostate@12@B 0000000140009c20     Listner.obj
 0002:00000c24       ?_Hardfail@?$_Iosb@H@std@@2W4_Iostate@12@B 0000000140009c24     Listner.obj
 0002:00000c28       ?in@?$_Iosb@H@std@@2W4_Openmode@12@B 0000000140009c28     Listner.obj
 0002:00000c2c       ?out@?$_Iosb@H@std@@2W4_Openmode@12@B 0000000140009c2c     Listner.obj
 0002:00000c30       ?ate@?$_Iosb@H@std@@2W4_Openmode@12@B 0000000140009c30     Listner.obj
 0002:00000c34       ?app@?$_Iosb@H@std@@2W4_Openmode@12@B 0000000140009c34     Listner.obj
 0002:00000c38       ?is_signed@?$numeric_limits@_W@std@@2_NB 0000000140009c38     Listner.obj
 0002:00000c3c       ?trunc@?$_Iosb@H@std@@2W4_Openmode@12@B 0000000140009c3c     Listner.obj
 0002:00000c40       ?_Nocreate@?$_Iosb@H@std@@2W4_Openmode@12@B 0000000140009c40     Listner.obj
 0002:00000c44       ?digits@?$numeric_limits@_W@std@@2HB 0000000140009c44     Listner.obj
 0002:00000c48       ?_Noreplace@?$_Iosb@H@std@@2W4_Openmode@12@B 0000000140009c48     Listner.obj
 0002:00000c4c       ?digits10@?$numeric_limits@_W@std@@2HB 0000000140009c4c     Listner.obj
 0002:00000c50       ?binary@?$_Iosb@H@std@@2W4_Openmode@12@B 0000000140009c50     Listner.obj
 0002:00000c54       ?beg@?$_Iosb@H@std@@2W4_Seekdir@12@B 0000000140009c54     Listner.obj
 0002:00000c58       ?cur@?$_Iosb@H@std@@2W4_Seekdir@12@B 0000000140009c58     Listner.obj
 0002:00000c5c       ?end@?$_Iosb@H@std@@2W4_Seekdir@12@B 0000000140009c5c     Listner.obj
 0002:00000c60       ?is_modulo@?$numeric_limits@_N@std@@2_NB 0000000140009c60     Listner.obj
 0002:00000c61       ?is_signed@?$numeric_limits@_N@std@@2_NB 0000000140009c61     Listner.obj
 0002:00000c64       ?digits@?$numeric_limits@_N@std@@2HB 0000000140009c64     Listner.obj
 0002:00000c68       ?digits10@?$numeric_limits@_N@std@@2HB 0000000140009c68     Listner.obj
 0002:00000c6c       ?_Stream_err@failure@ios_base@std@@0W4io_errc@43@B 0000000140009c6c     Listner.obj
 0002:00000c70       ?is_signed@?$numeric_limits@C@std@@2_NB 0000000140009c70     Listner.obj
 0002:00000c74       ?digits@?$numeric_limits@C@std@@2HB 0000000140009c74     Listner.obj
 0002:00000c78       ?digits10@?$numeric_limits@C@std@@2HB 0000000140009c78     Listner.obj
 0002:00000c7c       ?is_signed@?$numeric_limits@E@std@@2_NB 0000000140009c7c     Listner.obj
 0002:00000c80       ?digits@?$numeric_limits@E@std@@2HB 0000000140009c80     Listner.obj
 0002:00000c84       ?digits10@?$numeric_limits@E@std@@2HB 0000000140009c84     Listner.obj
 0002:00000c88       ?is_signed@?$numeric_limits@F@std@@2_NB 0000000140009c88     Listner.obj
 0002:00000c8c       ?digits@?$numeric_limits@F@std@@2HB 0000000140009c8c     Listner.obj
 0002:00000c90       ?digits10@?$numeric_limits@F@std@@2HB 0000000140009c90     Listner.obj
 0002:00000c94       ?is_signed@?$numeric_limits@G@std@@2_NB 0000000140009c94     Listner.obj
 0002:00000c98       ?digits@?$numeric_limits@G@std@@2HB 0000000140009c98     Listner.obj
 0002:00000c9c       ?digits10@?$numeric_limits@G@std@@2HB 0000000140009c9c     Listner.obj
 0002:00000ca0       ?value@?$integral_constant@_K$0A@@std@@2_KB 0000000140009ca0     Listner.obj
 0002:00000ca9       ?is_signed@?$numeric_limits@H@std@@2_NB 0000000140009ca9     Listner.obj
 0002:00000cac       ?digits@?$numeric_limits@H@std@@2HB 0000000140009cac     Listner.obj
 0002:00000cb0       ?collate@?$_Locbase@H@std@@2HB 0000000140009cb0     Listner.obj
 0002:00000cb4       ?ctype@?$_Locbase@H@std@@2HB 0000000140009cb4     Listner.obj
 0002:00000cb8       ?digits10@?$numeric_limits@H@std@@2HB 0000000140009cb8     Listner.obj
 0002:00000cbc       ?monetary@?$_Locbase@H@std@@2HB 0000000140009cbc     Listner.obj
 0002:00000cc0       ?numeric@?$_Locbase@H@std@@2HB 0000000140009cc0     Listner.obj
 0002:00000cc4       ?time@?$_Locbase@H@std@@2HB 0000000140009cc4     Listner.obj
 0002:00000cc8       ?messages@?$_Locbase@H@std@@2HB 0000000140009cc8     Listner.obj
 0002:00000ccc       ?all@?$_Locbase@H@std@@2HB 0000000140009ccc     Listner.obj
 0002:00000cd0       ?none@?$_Locbase@H@std@@2HB 0000000140009cd0     Listner.obj
 0002:00000cd4       ?is_signed@?$numeric_limits@I@std@@2_NB 0000000140009cd4     Listner.obj
 0002:00000cd8       ?digits@?$numeric_limits@I@std@@2HB 0000000140009cd8     Listner.obj
 0002:00000cdc       ?digits10@?$numeric_limits@I@std@@2HB 0000000140009cdc     Listner.obj
 0002:00000ce0       ?is_signed@?$numeric_limits@J@std@@2_NB 0000000140009ce0     Listner.obj
 0002:00000ce4       ?digits@?$numeric_limits@J@std@@2HB 0000000140009ce4     Listner.obj
 0002:00000ce8       ?digits10@?$numeric_limits@J@std@@2HB 0000000140009ce8     Listner.obj
 0002:00000cec       ?is_signed@?$numeric_limits@K@std@@2_NB 0000000140009cec     Listner.obj
 0002:00000cf0       ?digits@?$numeric_limits@K@std@@2HB 0000000140009cf0     Listner.obj
 0002:00000cf4       ?digits10@?$numeric_limits@K@std@@2HB 0000000140009cf4     Listner.obj
 0002:00000cf8       ?is_signed@?$numeric_limits@_J@std@@2_NB 0000000140009cf8     Listner.obj
 0002:00000cfc       ?digits@?$numeric_limits@_J@std@@2HB 0000000140009cfc     Listner.obj
 0002:00000d00       ?digits10@?$numeric_limits@_J@std@@2HB 0000000140009d00     Listner.obj
 0002:00000d04       ?is_signed@?$numeric_limits@_K@std@@2_NB 0000000140009d04     Listner.obj
 0002:00000d08       ?digits@?$numeric_limits@_K@std@@2HB 0000000140009d08     Listner.obj
 0002:00000d0c       ?digits10@?$numeric_limits@_K@std@@2HB 0000000140009d0c     Listner.obj
 0002:00000d10       ?digits@?$numeric_limits@M@std@@2HB 0000000140009d10     Listner.obj
 0002:00000d14       ?digits10@?$numeric_limits@M@std@@2HB 0000000140009d14     Listner.obj
 0002:00000d18       ?max_digits10@?$numeric_limits@M@std@@2HB 0000000140009d18     Listner.obj
 0002:00000d1c       ?max_exponent@?$numeric_limits@M@std@@2HB 0000000140009d1c     Listner.obj
 0002:00000d20       ?max_exponent10@?$numeric_limits@M@std@@2HB 0000000140009d20     Listner.obj
 0002:00000d24       ?min_exponent@?$numeric_limits@M@std@@2HB 0000000140009d24     Listner.obj
 0002:00000d28       ?min_exponent10@?$numeric_limits@M@std@@2HB 0000000140009d28     Listner.obj
 0002:00000d2c       ?digits@?$numeric_limits@N@std@@2HB 0000000140009d2c     Listner.obj
 0002:00000d30       ?digits10@?$numeric_limits@N@std@@2HB 0000000140009d30     Listner.obj
 0002:00000d34       ?max_digits10@?$numeric_limits@N@std@@2HB 0000000140009d34     Listner.obj
 0002:00000d38       ?max_exponent@?$numeric_limits@N@std@@2HB 0000000140009d38     Listner.obj
 0002:00000da0       ?npos@?$basic_string@DU?$char_traits@D@std@@V?$allocator@D@2@@std@@2_KB 0000000140009da0     Listner.obj
 0002:00000db8       ??_7error_category@std@@6B@ 0000000140009db8     Listner.obj
 0002:00000e00       ??_7_Generic_error_category@std@@6B@ 0000000140009e00     Listner.obj
 0002:00000e40       ??_C@_07DCLBNMLN@generic?$AA@ 0000000140009e40     Listner.obj
 0002:00000e50       ??_C@_0O@BFJCFAAK@unknown?5error?$AA@ 0000000140009e50     Listner.obj
 0002:00000e68       ??_7_Iostream_error_category@std@@6B@ 0000000140009e68     Listner.obj
 0002:00000ea8       ??_C@_08LLGCOLLL@iostream?$AA@ 0000000140009ea8     Listner.obj
 0002:00000eb8       ??_C@_0BG@PADBLCHM@iostream?5stream?5error?$AA@ 0000000140009eb8     Listner.obj
 0002:00000ee0       ??_7_System_error_category@std@@6B@ 0000000140009ee0     Listner.obj
 0002:00000f1c       ??_C@_06FHFOAHML@system?$AA@ 0000000140009f1c     Listner.obj
 0002:00000f28       ??_C@_0BA@JFNIOLAK@string?5too?5long?$AA@ 0000000140009f28     Listner.obj
 0002:00000f40       ??_C@_0BI@CFPLBAOH@invalid?5string?5position?$AA@ 0000000140009f40     Listner.obj
 0002:00000fc0       ??_7type_info@@6B@         0000000140009fc0     MSVCRT:ti_inst.obj
 0002:00000fd8       ?ProcessDetach@NativeDll@<CrtImplementationDetails>@@0IB 0000000140009fd8     MSVCRT:unhandld.obj
 0002:00000fdc       ?ProcessAttach@NativeDll@<CrtImplementationDetails>@@0IB 0000000140009fdc     MSVCRT:unhandld.obj
 0002:00000fe0       ?ThreadAttach@NativeDll@<CrtImplementationDetails>@@0IB 0000000140009fe0     MSVCRT:unhandld.obj
 0002:00000fe4       ?ThreadDetach@NativeDll@<CrtImplementationDetails>@@0IB 0000000140009fe4     MSVCRT:unhandld.obj
 0002:00000fe8       ?ProcessVerifier@NativeDll@<CrtImplementationDetails>@@0IB 0000000140009fe8     MSVCRT:unhandld.obj
 0002:00000ff0       _load_config_used          0000000140009ff0     MSVCRT:loadcfg.obj
 0002:00001380       ??_R4error_category@std@@6B@ 000000014000a380     Listner.obj
 0002:000013b0       ??_R3error_category@std@@8 000000014000a3b0     Listner.obj
 0002:000013c8       ??_R2error_category@std@@8 000000014000a3c8     Listner.obj
 0002:000013d8       ??_R1A@?0A@EA@error_category@std@@8 000000014000a3d8     Listner.obj
 0002:00001408       ??_R4_Generic_error_category@std@@6B@ 000000014000a408     Listner.obj
 0002:00001438       ??_R3_Generic_error_category@std@@8 000000014000a438     Listner.obj
 0002:00001450       ??_R2_Generic_error_category@std@@8 000000014000a450     Listner.obj
 0002:00001468       ??_R1A@?0A@EA@_Generic_error_category@std@@8 000000014000a468     Listner.obj
 0002:00001498       ??_R4_Iostream_error_category@std@@6B@ 000000014000a498     Listner.obj
 0002:000014c8       ??_R3_Iostream_error_category@std@@8 000000014000a4c8     Listner.obj
 0002:000014e0       ??_R2_Iostream_error_category@std@@8 000000014000a4e0     Listner.obj
 0002:00001508       ??_R1A@?0A@EA@_Iostream_error_category@std@@8 000000014000a508     Listner.obj
 0002:00001538       ??_R4_System_error_category@std@@6B@ 000000014000a538     Listner.obj
 0002:00001568       ??_R3_System_error_category@std@@8 000000014000a568     Listner.obj
 0002:00001580       ??_R2_System_error_category@std@@8 000000014000a580     Listner.obj
 0002:000015a8       ??_R1A@?0A@EA@_System_error_category@std@@8 000000014000a5a8     Listner.obj
 0002:000015d8       ??_R4type_info@@6B@        000000014000a5d8     MSVCRT:ti_inst.obj
 0002:00001600       ??_R3type_info@@8          000000014000a600     MSVCRT:ti_inst.obj
 0002:00001618       ??_R2type_info@@8          000000014000a618     MSVCRT:ti_inst.obj
 0002:00001628       ??_R1A@?0A@EA@type_info@@8 000000014000a628     MSVCRT:ti_inst.obj
 0002:00001778       __rtc_iaa                  000000014000a778     MSVCRT:initsect.obj
 0002:00001888       __rtc_izz                  000000014000a888     MSVCRT:initsect.obj
 0002:00001998       __rtc_taa                  000000014000a998     MSVCRT:initsect.obj
 0002:00001aa8       __rtc_tzz                  000000014000aaa8     MSVCRT:initsect.obj
 0003:00000000       ??_R0?AVerror_category@std@@@8 000000014000c000     Listner.obj
 0003:00000038       ??_R0?AV_Generic_error_category@std@@@8 000000014000c038     Listner.obj
 0003:00000078       ??_R0?AV_Iostream_error_category@std@@@8 000000014000c078     Listner.obj
 0003:000000b8       ??_R0?AV_System_error_category@std@@@8 000000014000c0b8     Listner.obj
 0003:00000100       ??_R0?AVtype_info@@@8      000000014000c100     MSVCRT:ti_inst.obj
 0003:00000120       __security_cookie          000000014000c120     MSVCRT:gs_cookie.obj
 0003:00000128       __security_cookie_complement 000000014000c128     MSVCRT:gs_cookie.obj
 0003:00000130       __defaultmatherr           000000014000c130     MSVCRT:merr.obj
 0003:00000134       __globallocalestatus       000000014000c134     MSVCRT:xthdloc.obj
 0003:00000138       __native_dllmain_reason    000000014000c138     MSVCRT:natstart.obj
 0003:00000250       ?G_CENTER@@3PADA           000000014000c250     Listner.obj
 0003:000002f0       ?_Generic_object@?$_Error_objects@H@std@@2V_Generic_error_category@2@A 000000014000c2f0     Listner.obj
 0003:00000300       ?_Iostream_object@?$_Error_objects@H@std@@2V_Iostream_error_category@2@A 000000014000c300     Listner.obj
 0003:00000310       ?_System_object@?$_Error_objects@H@std@@2V_System_error_category@2@A 000000014000c310     Listner.obj
 0003:00000320       ?id@?$num_put@DV?$back_insert_iterator@V?$basic_string@DU?$char_traits@D@std@@V?$allocator@D@2@@std@@@std@@@std@@2V0locale@2@A 000000014000c320     Listner.obj
 0003:00000330       ?id@?$num_put@_WV?$back_insert_iterator@V?$basic_string@_WU?$char_traits@_W@std@@V?$allocator@_W@2@@std@@@std@@@std@@2V0locale@2@A 000000014000c330     Listner.obj
 0003:000008e4       _commode                   000000014000c8e4     MSVCRT:xncommod.obj
 0003:000008e8       _dowildcard                000000014000c8e8     MSVCRT:wildcard.obj
 0003:000008ec       _newmode                   000000014000c8ec     MSVCRT:_newmode.obj
 0003:000008f0       _fmode                     000000014000c8f0     MSVCRT:xtxtmode.obj
 0003:000008f8       __native_startup_lock      000000014000c8f8     <common>
 0003:0000090c       __native_startup_state     000000014000c90c     <common>
 0003:00000910       __dyn_tls_init_callback    000000014000c910     <common>
 0003:00000928       __onexitend                000000014000c928     <common>
 0003:00000940       __onexitbegin              000000014000c940     <common>
 0005:00000000       __IMPORT_DESCRIPTOR_HCNetSDK 000000014000e000     HCNetSDK:HCNetSDK.dll
 0005:00000014       _head_libcurl_dll          000000014000e014     libcurldll:d000000.o
 0005:00000028       __IMPORT_DESCRIPTOR_KERNEL32 000000014000e028     kernel32:KERNEL32.dll
 0005:0000003c       __IMPORT_DESCRIPTOR_MSVCP110 000000014000e03c     msvcprt:MSVCP110.dll
 0005:00000050       __IMPORT_DESCRIPTOR_MSVCR110 000000014000e050     MSVCRT:MSVCR110.dll
 0005:00000064       __NULL_IMPORT_DESCRIPTOR   000000014000e064     HCNetSDK:HCNetSDK.dll
 0005:00000448       __imp_NET_DVR_Cleanup      000000014000e448     HCNetSDK:HCNetSDK.dll
 0005:00000450       __imp_NET_DVR_StartListen_V30 000000014000e450     HCNetSDK:HCNetSDK.dll
 0005:00000458       __imp_NET_DVR_StopListen_V30 000000014000e458     HCNetSDK:HCNetSDK.dll
 0005:00000460       __imp_NET_DVR_Login_V30    000000014000e460     HCNetSDK:HCNetSDK.dll
 0005:00000468       __imp_NET_DVR_Logout       000000014000e468     HCNetSDK:HCNetSDK.dll
 0005:00000470       __imp_NET_DVR_GetLastError 000000014000e470     HCNetSDK:HCNetSDK.dll
 0005:00000478       __imp_NET_DVR_Init         000000014000e478     HCNetSDK:HCNetSDK.dll
 0005:00000480       \177HCNetSDK_NULL_THUNK_DATA 000000014000e480     HCNetSDK:HCNetSDK.dll
 0005:000004e0       __imp_GetCurrentThreadId   000000014000e4e0     kernel32:KERNEL32.dll
 0005:000004e8       __imp_QueryPerformanceCounter 000000014000e4e8     kernel32:KERNEL32.dll
 0005:000004f0       __imp_IsProcessorFeaturePresent 000000014000e4f0     kernel32:KERNEL32.dll
 0005:000004f8       __imp_IsDebuggerPresent    000000014000e4f8     kernel32:KERNEL32.dll
 0005:00000500       __imp_DecodePointer        000000014000e500     kernel32:KERNEL32.dll
 0005:00000508       __imp_EncodePointer        000000014000e508     kernel32:KERNEL32.dll
 0005:00000510       __imp_GetTickCount64       000000014000e510     kernel32:KERNEL32.dll
 0005:00000518       __imp_GetSystemTimeAsFileTime 000000014000e518     kernel32:KERNEL32.dll
 0005:00000520       \177KERNEL32_NULL_THUNK_DATA 000000014000e520     kernel32:KERNEL32.dll
 0005:00000580       __imp_?_Xlength_error@std@@YAXPEBD@Z 000000014000e580     msvcprt:MSVCP110.dll
 0005:00000588       __imp_?_Xout_of_range@std@@YAXPEBD@Z 000000014000e588     msvcprt:MSVCP110.dll
 0005:00000590       __imp_??0id@locale@std@@QEAA@_K@Z 000000014000e590     msvcprt:MSVCP110.dll
 0005:00000598       __imp_?_Syserror_map@std@@YAPEBDH@Z 000000014000e598     msvcprt:MSVCP110.dll
 0005:000005a0       __imp_?_Winerror_map@std@@YAPEBDH@Z 000000014000e5a0     msvcprt:MSVCP110.dll
 0005:000005a8       __imp_?_Xbad_alloc@std@@YAXXZ 000000014000e5a8     msvcprt:MSVCP110.dll
 0005:000005b0       \177MSVCP110_NULL_THUNK_DATA 000000014000e5b0     msvcprt:MSVCP110.dll
 0005:00000610       __imp_??2@YAPEAX_K@Z       000000014000e610     MSVCRT:MSVCR110.dll
 0005:00000618       __imp_??3@YAXPEAX@Z        000000014000e618     MSVCRT:MSVCR110.dll
 0005:00000620       __imp_memcpy               000000014000e620     MSVCRT:MSVCR110.dll
 0005:00000628       __imp__purecall            000000014000e628     MSVCRT:MSVCR110.dll
 0005:00000630       __imp_strcpy               000000014000e630     MSVCRT:MSVCR110.dll
 0005:00000638       __imp_strlen               000000014000e638     MSVCRT:MSVCR110.dll
 0005:00000640       __imp_memmove              000000014000e640     MSVCRT:MSVCR110.dll
 0005:00000648       __imp_printf               000000014000e648     MSVCRT:MSVCR110.dll
 0005:00000650       __imp_sprintf              000000014000e650     MSVCRT:MSVCR110.dll
 0005:00000658       __imp__CxxThrowException   000000014000e658     MSVCRT:MSVCR110.dll
 0005:00000660       __imp___CxxFrameHandler3   000000014000e660     MSVCRT:MSVCR110.dll
 0005:00000668       __imp_getchar              000000014000e668     MSVCRT:MSVCR110.dll
 0005:00000670       __imp_memset               000000014000e670     MSVCRT:MSVCR110.dll
 0005:00000678       __imp__unlock              000000014000e678     MSVCRT:MSVCR110.dll
 0005:00000680       __imp__calloc_crt          000000014000e680     MSVCRT:MSVCR110.dll
 0005:00000688       __imp___dllonexit          000000014000e688     MSVCRT:MSVCR110.dll
 0005:00000690       __imp___C_specific_handler 000000014000e690     MSVCRT:MSVCR110.dll
 0005:00000698       __imp__onexit              000000014000e698     MSVCRT:MSVCR110.dll
 0005:000006a0       __imp__XcptFilter          000000014000e6a0     MSVCRT:MSVCR110.dll
 0005:000006a8       __imp__amsg_exit           000000014000e6a8     MSVCRT:MSVCR110.dll
 0005:000006b0       __imp___getmainargs        000000014000e6b0     MSVCRT:MSVCR110.dll
 0005:000006b8       __imp___set_app_type       000000014000e6b8     MSVCRT:MSVCR110.dll
 0005:000006c0       __imp_exit                 000000014000e6c0     MSVCRT:MSVCR110.dll
 0005:000006c8       __imp__exit                000000014000e6c8     MSVCRT:MSVCR110.dll
 0005:000006d0       __imp__cexit               000000014000e6d0     MSVCRT:MSVCR110.dll
 0005:000006d8       __imp__configthreadlocale  000000014000e6d8     MSVCRT:MSVCR110.dll
 0005:000006e0       __imp___setusermatherr     000000014000e6e0     MSVCRT:MSVCR110.dll
 0005:000006e8       __imp__initterm_e          000000014000e6e8     MSVCRT:MSVCR110.dll
 0005:000006f0       __imp__initterm            000000014000e6f0     MSVCRT:MSVCR110.dll
 0005:000006f8       __imp___initenv            000000014000e6f8     MSVCRT:MSVCR110.dll
 0005:00000700       __imp__fmode               000000014000e700     MSVCRT:MSVCR110.dll
 0005:00000708       __imp__commode             000000014000e708     MSVCRT:MSVCR110.dll
 0005:00000710       __imp___crt_debugger_hook  000000014000e710     MSVCRT:MSVCR110.dll
 0005:00000718       __imp___crtUnhandledException 000000014000e718     MSVCRT:MSVCR110.dll
 0005:00000720       __imp___crtTerminateProcess 000000014000e720     MSVCRT:MSVCR110.dll
 0005:00000728       __imp___crtCaptureCurrentContext 000000014000e728     MSVCRT:MSVCR110.dll
 0005:00000730       __imp___crtCapturePreviousContext 000000014000e730     MSVCRT:MSVCR110.dll
 0005:00000738       __imp_?terminate@@YAXXZ    000000014000e738     MSVCRT:MSVCR110.dll
 0005:00000740       __imp_?_type_info_dtor_internal_method@type_info@@QEAAXXZ 000000014000e740     MSVCRT:MSVCR110.dll
 0005:00000748       __imp___crtSetUnhandledExceptionFilter 000000014000e748     MSVCRT:MSVCR110.dll
 0005:00000750       __imp__lock                000000014000e750     MSVCRT:MSVCR110.dll
 0005:00000758       __imp_atoi                 000000014000e758     MSVCRT:MSVCR110.dll
 0005:00000760       \177MSVCR110_NULL_THUNK_DATA 000000014000e760     MSVCRT:MSVCR110.dll
 0005:000007f0       __imp_curl_easy_cleanup    000000014000e7f0     libcurldll:d000001.o
 0005:000007f8       __imp_curl_easy_init       000000014000e7f8     libcurldll:d000005.o
 0005:00000800       __imp_curl_easy_perform    000000014000e800     libcurldll:d000007.o
 0005:00000808       __imp_curl_easy_setopt     000000014000e808     libcurldll:d000011.o
 0005:00000edc       libcurl_dll_iname          000000014000eedc     libcurldll:d000060.o

 entry point at        0001:00002c20

